target datalayout = "e-m:e-p270:32:32-p271:32:32-p272:64:64-i64:64-i128:128-f80:128-n8:16:32:64-S128"
target triple = "x86_64-pc-linux-gnu"

%struct._output_fields = type { i8, i8, i8, i8, i8, ptr, ptr, ptr, ptr, ptr, i8, i8, i8 }
%struct._GPtrArray = type { ptr, i32 }

@.str.60 = private unnamed_addr constant [1 x i8] zeroinitializer, align 1
@.str.75 = private unnamed_addr constant [13 x i8] c"epan/print.c\00", align 1
@.str.76 = private unnamed_addr constant [31 x i8] c"assertion \22not reached\22 failed\00", align 1
@__func__.format_field_values = private unnamed_addr constant [20 x i8] c"format_field_values\00", align 1

; Function Attrs: null_pointer_is_valid sspstrong uwtable
define internal void @format_field_values(ptr noundef %0, ptr noundef %1, ptr noundef %2) #0 {
  %4 = alloca ptr, align 8
  %5 = alloca ptr, align 8
  %6 = alloca ptr, align 8
  %7 = alloca i32, align 4
  %8 = alloca ptr, align 8
  %9 = alloca i32, align 4
  store ptr %0, ptr %4, align 8
  store ptr %1, ptr %5, align 8
  store ptr %2, ptr %6, align 8
  call void @llvm.lifetime.start.p0(i64 4, ptr %7) #15
  call void @llvm.lifetime.start.p0(i64 8, ptr %8) #15
  %10 = load ptr, ptr %6, align 8
  %11 = icmp eq ptr null, %10
  br i1 %11, label %12, label %13

12:                                               ; preds = %3
  store i32 1, ptr %9, align 4
  br label %78

13:                                               ; preds = %3
  %14 = load ptr, ptr %5, align 8
  %15 = ptrtoint ptr %14 to i64
  %16 = trunc i64 %15 to i32
  %17 = sub i32 %16, 1
  store i32 %17, ptr %7, align 4
  %18 = load ptr, ptr %4, align 8
  %19 = getelementptr inbounds nuw %struct._output_fields, ptr %18, i32 0, i32 8
  %20 = load ptr, ptr %19, align 8
  %21 = load i32, ptr %7, align 4
  %22 = zext i32 %21 to i64
  %23 = getelementptr ptr, ptr %20, i64 %22
  %24 = load ptr, ptr %23, align 8
  %25 = icmp eq ptr %24, null
  br i1 %25, label %26, label %34

26:                                               ; preds = %13
  %27 = call ptr @g_ptr_array_new_with_free_func(ptr noundef @g_free)
  %28 = load ptr, ptr %4, align 8
  %29 = getelementptr inbounds nuw %struct._output_fields, ptr %28, i32 0, i32 8
  %30 = load ptr, ptr %29, align 8
  %31 = load i32, ptr %7, align 4
  %32 = zext i32 %31 to i64
  %33 = getelementptr ptr, ptr %30, i64 %32
  store ptr %27, ptr %33, align 8
  br label %34

34:                                               ; preds = %26, %13
  %35 = load ptr, ptr %4, align 8
  %36 = getelementptr inbounds nuw %struct._output_fields, ptr %35, i32 0, i32 8
  %37 = load ptr, ptr %36, align 8
  %38 = load i32, ptr %7, align 4
  %39 = zext i32 %38 to i64
  %40 = getelementptr ptr, ptr %37, i64 %39
  %41 = load ptr, ptr %40, align 8
  store ptr %41, ptr %8, align 8
  %42 = load ptr, ptr %4, align 8
  %43 = getelementptr inbounds nuw %struct._output_fields, ptr %42, i32 0, i32 3
  %44 = load i8, ptr %43, align 1
  %45 = sext i8 %44 to i32
  switch i32 %45, label %74 [
    i32 102, label %46
    i32 108, label %60
    i32 97, label %75
  ]

46:                                               ; preds = %34
  %47 = load ptr, ptr %8, align 8
  %48 = icmp ne ptr %47, null
  br i1 %48, label %49, label %53

49:                                               ; preds = %46
  %50 = load ptr, ptr %8, align 8
  %51 = getelementptr inbounds nuw %struct._GPtrArray, ptr %50, i32 0, i32 1
  %52 = load i32, ptr %51, align 8
  br label %54

53:                                               ; preds = %46
  br label %54

54:                                               ; preds = %53, %49
  %55 = phi i32 [ %52, %49 ], [ 0, %53 ]
  %56 = icmp ne i32 %55, 0
  br i1 %56, label %57, label %59

57:                                               ; preds = %54
  %58 = load ptr, ptr %6, align 8
  call void @g_free(ptr noundef %58)
  store i32 1, ptr %9, align 4
  br label %78

59:                                               ; preds = %54
  br label %75

60:                                               ; preds = %34
  %61 = load ptr, ptr %8, align 8
  %62 = icmp ne ptr %61, null
  br i1 %62, label %63, label %67

63:                                               ; preds = %60
  %64 = load ptr, ptr %8, align 8
  %65 = getelementptr inbounds nuw %struct._GPtrArray, ptr %64, i32 0, i32 1
  %66 = load i32, ptr %65, align 8
  br label %68

67:                                               ; preds = %60
  br label %68

68:                                               ; preds = %67, %63
  %69 = phi i32 [ %66, %63 ], [ 0, %67 ]
  %70 = icmp ne i32 %69, 0
  br i1 %70, label %71, label %73

71:                                               ; preds = %68
  %72 = load ptr, ptr %8, align 8
  call void @g_ptr_array_set_size(ptr noundef %72, i32 noundef 0)
  br label %73

73:                                               ; preds = %71, %68
  br label %75

74:                                               ; preds = %34
  call void (ptr, i32, ptr, i64, ptr, ptr, ...) @ws_log_fatal_full(ptr noundef @.str.60, i32 noundef 7, ptr noundef @.str.75, i64 noundef 2411, ptr noundef @__func__.format_field_values, ptr noundef @.str.76) #17
  unreachable

75:                                               ; preds = %34, %73, %59
  %76 = load ptr, ptr %8, align 8
  %77 = load ptr, ptr %6, align 8
  call void @g_ptr_array_add(ptr noundef %76, ptr noundef %77)
  store i32 0, ptr %9, align 4
  br label %78

78:                                               ; preds = %75, %57, %12
  call void @llvm.lifetime.end.p0(i64 8, ptr %8) #15
  call void @llvm.lifetime.end.p0(i64 4, ptr %7) #15
  %79 = load i32, ptr %9, align 4
  switch i32 %79, label %81 [
    i32 0, label %80
    i32 1, label %80
  ]

80:                                               ; preds = %78, %78
  ret void

81:                                               ; preds = %78
  unreachable
}