; Function Attrs: null_pointer_is_valid sspstrong uwtable
define internal fastcc void @format_field_values(ptr noundef readonly captures(none) %0, ptr noundef %1, ptr noundef %2) unnamed_addr #0 {
  %4 = icmp eq ptr %2, null
  br i1 %4, label %35, label %5

5:                                                ; preds = %3
  %6 = ptrtoint ptr %1 to i64
  %7 = add i64 %6, 4294967295
  %8 = getelementptr inbounds nuw i8, ptr %0, i64 32
  %9 = load ptr, ptr %8, align 8
  %10 = and i64 %7, 4294967295
  %11 = getelementptr ptr, ptr %9, i64 %10
  %12 = load ptr, ptr %11, align 8
  %13 = icmp eq ptr %12, null
  br i1 %13, label %14, label %18

14:                                               ; preds = %5
  %15 = tail call ptr @g_ptr_array_new_with_free_func(ptr noundef nonnull @g_free)
  %16 = load ptr, ptr %8, align 8
  %17 = getelementptr ptr, ptr %16, i64 %10
  store ptr %15, ptr %17, align 8
  %.pre = load ptr, ptr %8, align 8
  %.phi.trans.insert = getelementptr ptr, ptr %.pre, i64 %10
  %.pre22 = load ptr, ptr %.phi.trans.insert, align 8
  br label %18

18:                                               ; preds = %14, %5
  %19 = phi ptr [ %.pre22, %14 ], [ %12, %5 ]
  %20 = getelementptr inbounds nuw i8, ptr %0, i64 3
  %21 = load i8, ptr %20, align 1
  switch i8 %21, label %34 [
    i8 102, label %22
    i8 108, label %28
    i8 97, label %.critedge
  ]

22:                                               ; preds = %18
  %.not18 = icmp eq ptr %19, null
  br i1 %.not18, label %.critedge, label %23

23:                                               ; preds = %22
  %24 = getelementptr inbounds nuw i8, ptr %19, i64 8
  %25 = load i32, ptr %24, align 8
  %26 = icmp eq i32 %25, 0
  br i1 %26, label %.critedge, label %27

27:                                               ; preds = %23
  tail call void @g_free(ptr noundef nonnull %2)
  br label %35

28:                                               ; preds = %18
  %.not = icmp eq ptr %19, null
  br i1 %.not, label %.critedge, label %29

29:                                               ; preds = %28
  %30 = getelementptr inbounds nuw i8, ptr %19, i64 8
  %31 = load i32, ptr %30, align 8
  %32 = icmp eq i32 %31, 0
  br i1 %32, label %.critedge, label %33

33:                                               ; preds = %29
  tail call void @g_ptr_array_set_size(ptr noundef nonnull %19, i32 noundef 0)
  br label %.critedge

34:                                               ; preds = %18
  tail call void (ptr, i32, ptr, i64, ptr, ptr, ...) @ws_log_fatal_full(ptr noundef nonnull @.str.60, i32 noundef 7, ptr noundef nonnull @.str.75, i64 noundef 2411, ptr noundef nonnull @__func__.format_field_values, ptr noundef nonnull @.str.76) #23
  unreachable

.critedge:                                        ; preds = %28, %22, %29, %33, %23, %18
  tail call void @g_ptr_array_add(ptr noundef %19, ptr noundef nonnull %2)
  br label %35

35:                                               ; preds = %3, %.critedge, %27
  ret void
}